; Function Attrs: nounwind uwtable
define ptr @l___private_Lean_Meta_Tactic_Grind_ProveEq_0__Lean_Meta_Grind_mkLambdaWithBodyAndVarType(ptr noundef readonly captures(none) %0, ptr noundef %1) local_unnamed_addr #1 {
  %3 = getelementptr i8, ptr %0, i64 8
  %.val = load i64, ptr %3, align 8, !tbaa !16
  %.not27.i.not = icmp eq i64 %.val, 0
  br i1 %.not27.i.not, label %l_Array_forIn_x27Unsafe_loop___at___private_Lean_Meta_Tactic_Grind_ProveEq_0__Lean_Meta_Grind_mkLambdaWithBodyAndVarType___spec__1.exit, label %.lr.ph.i

.lr.ph.i:                                         ; preds = %2
  %4 = getelementptr inbounds nuw i8, ptr %0, i64 24
  br label %5

5:                                                ; preds = %16, %.lr.ph.i
  %.01529.i = phi i64 [ 0, %.lr.ph.i ], [ %19, %16 ]
  %.01728.i = phi ptr [ %1, %.lr.ph.i ], [ %18, %16 ]
  %6 = getelementptr inbounds nuw [0 x ptr], ptr %4, i64 0, i64 %.01529.i
  %7 = load ptr, ptr %6, align 8, !tbaa !4
  %8 = ptrtoint ptr %7 to i64
  %9 = and i64 %8, 1
  %.not.i.i = icmp eq i64 %9, 0
  br i1 %.not.i.i, label %10, label %16

10:                                               ; preds = %5
  %.val.i.i.i = load i32, ptr %7, align 4, !tbaa !8
  %11 = icmp sgt i32 %.val.i.i.i, 0
  br i1 %11, label %12, label %14, !prof !11

12:                                               ; preds = %10
  %13 = add nuw i32 %.val.i.i.i, 1
  store i32 %13, ptr %7, align 4, !tbaa !8
  br label %16

14:                                               ; preds = %10
  %.not.i.i.i = icmp eq i32 %.val.i.i.i, 0
  br i1 %.not.i.i.i, label %16, label %15

15:                                               ; preds = %14
  tail call void @lean_inc_ref_cold(ptr noundef nonnull %7) #4
  br label %16

16:                                               ; preds = %15, %14, %12, %5
  %17 = load ptr, ptr @l_Array_forIn_x27Unsafe_loop___at___private_Lean_Meta_Tactic_Grind_ProveEq_0__Lean_Meta_Grind_mkLambdaWithBodyAndVarType___spec__1___closed__3, align 8, !tbaa !4
  %18 = tail call ptr @l_Lean_Expr_lam___override(ptr noundef %17, ptr noundef %7, ptr noundef %.01728.i, i8 noundef zeroext 0) #4
  %19 = add nuw i64 %.01529.i, 1
  %exitcond.not.i = icmp eq i64 %19, %.val
  br i1 %exitcond.not.i, label %l_Array_forIn_x27Unsafe_loop___at___private_Lean_Meta_Tactic_Grind_ProveEq_0__Lean_Meta_Grind_mkLambdaWithBodyAndVarType___spec__1.exit, label %5

l_Array_forIn_x27Unsafe_loop___at___private_Lean_Meta_Tactic_Grind_ProveEq_0__Lean_Meta_Grind_mkLambdaWithBodyAndVarType___spec__1.exit: ; preds = %16, %2
  %.017.lcssa.i = phi ptr [ %1, %2 ], [ %18, %16 ]
  ret ptr %.017.lcssa.i
}